target datalayout = "e-m:e-p270:32:32-p271:32:32-p272:64:64-i64:64-i128:128-f80:128-n8:16:32:64-S128"
target triple = "x86_64-pc-linux-gnu"

%struct.slurm_acct_storage_ops = type { ptr, ptr, ptr, ptr, ptr, ptr, ptr, ptr, ptr, ptr, ptr, ptr, ptr, ptr, ptr, ptr, ptr, ptr, ptr, ptr, ptr, ptr, ptr, ptr, ptr, ptr, ptr, ptr, ptr, ptr, ptr, ptr, ptr, ptr, ptr, ptr, ptr, ptr, ptr, ptr, ptr, ptr, ptr, ptr, ptr, ptr, ptr, ptr, ptr, ptr, ptr, ptr, ptr, ptr, ptr, ptr, ptr, ptr, ptr, ptr, ptr, ptr, ptr, ptr, ptr, ptr, ptr, ptr, ptr, ptr, ptr, ptr, ptr, ptr, ptr, ptr, ptr, ptr, ptr, ptr }

@plugin_inited = internal global i32 0, align 4
@ops = internal global %struct.slurm_acct_storage_ops zeroinitializer, align 8

; Function Attrs: nounwind uwtable
define dso_local i32 @acct_storage_g_roll_usage(ptr noundef %0, i64 noundef %1, i64 noundef %2, i16 noundef zeroext %3, ptr noundef %4) #0 {
  %6 = alloca i32, align 4
  %7 = alloca ptr, align 8
  %8 = alloca i64, align 8
  %9 = alloca i64, align 8
  %10 = alloca i16, align 2
  %11 = alloca ptr, align 8
  store ptr %0, ptr %7, align 8
  store i64 %1, ptr %8, align 8
  store i64 %2, ptr %9, align 8
  store i16 %3, ptr %10, align 2
  store ptr %4, ptr %11, align 8
  %12 = load i32, ptr @plugin_inited, align 4
  %13 = icmp eq i32 %12, 1
  br i1 %13, label %14, label %15

14:                                               ; preds = %5
  store i32 0, ptr %6, align 4
  br label %23

15:                                               ; preds = %5
  %16 = load ptr, ptr getelementptr inbounds nuw (%struct.slurm_acct_storage_ops, ptr @ops, i32 0, i32 52), align 8
  %17 = load ptr, ptr %7, align 8
  %18 = load i64, ptr %8, align 8
  %19 = load i64, ptr %9, align 8
  %20 = load i16, ptr %10, align 2
  %21 = load ptr, ptr %11, align 8
  %22 = call i32 %16(ptr noundef %17, i64 noundef %18, i64 noundef %19, i16 noundef zeroext %20, ptr noundef %21)
  store i32 %22, ptr %6, align 4
  br label %23

23:                                               ; preds = %15, %14
  %24 = load i32, ptr %6, align 4
  ret i32 %24
}